target datalayout = "e-m:e-p270:32:32-p271:32:32-p272:64:64-i64:64-i128:128-f80:128-n8:16:32:64-S128"
target triple = "x86_64-pc-linux-gnu"

%struct._lv_obj_t = type { ptr, ptr, ptr, ptr, ptr, %struct.lv_area_t, i32, i16, i16 }
%struct.lv_area_t = type { i32, i32, i32, i32 }
%struct._lv_obj_style_t = type { ptr, i32 }
%struct.trans_t = type { ptr, i8, i32, %union.lv_style_value_t, %union.lv_style_value_t }
%union.lv_style_value_t = type { ptr }
%struct._lv_anim_t = type { ptr, ptr, ptr, ptr, ptr, ptr, ptr, ptr, ptr, i32, i32, i32, i32, i32, i32, i32, i32, i32, %union._lv_anim_path_para_t, i32, i32, i32, i8 }
%union._lv_anim_path_para_t = type { %struct.lv_anim_bezier3_para_t }
%struct.lv_anim_bezier3_para_t = type { i16, i16, i16, i16 }

; Function Attrs: nounwind uwtable
define ptr @lv_obj_get_style_prop(ptr noundef %0, i32 noundef %1, i8 noundef zeroext %2) #0 {
  %4 = alloca %union.lv_style_value_t, align 8
  %5 = alloca ptr, align 8
  %6 = alloca i32, align 4
  %7 = alloca i8, align 1
  %8 = alloca i32, align 4
  %9 = alloca %union.lv_style_value_t, align 8
  %10 = alloca i32, align 4
  %11 = alloca i32, align 4
  store ptr %0, ptr %5, align 8, !tbaa !30
  store i32 %1, ptr %6, align 4, !tbaa !32
  store i8 %2, ptr %7, align 1, !tbaa !43
  br label %12

12:                                               ; preds = %3
  %13 = load ptr, ptr %5, align 8, !tbaa !30
  %14 = icmp ne ptr %13, null
  br i1 %14, label %19, label %15

15:                                               ; preds = %12
  br label %16

16:                                               ; preds = %15
  br label %17

17:                                               ; preds = %16
  br label %18

18:                                               ; preds = %17, %18
  br label %18

19:                                               ; preds = %12
  br label %20

20:                                               ; preds = %19
  call void @llvm.lifetime.start.p0(i64 4, ptr %8) #6
  %21 = load i32, ptr %6, align 4, !tbaa !32
  %22 = load ptr, ptr %5, align 8, !tbaa !30
  %23 = getelementptr inbounds nuw %struct._lv_obj_t, ptr %22, i32 0, i32 7
  %24 = load i16, ptr %23, align 4, !tbaa !91
  %25 = zext i16 %24 to i32
  %26 = or i32 %21, %25
  store i32 %26, ptr %8, align 4, !tbaa !32
  call void @llvm.lifetime.start.p0(i64 8, ptr %9) #6
  call void @llvm.memset.p0.i64(ptr align 8 %9, i8 0, i64 8, i1 false)
  call void @llvm.lifetime.start.p0(i64 4, ptr %10) #6
  %27 = load ptr, ptr %5, align 8, !tbaa !30
  %28 = load i32, ptr %8, align 4, !tbaa !32
  %29 = load i8, ptr %7, align 1, !tbaa !43
  %30 = call i32 @get_selector_style_prop(ptr noundef %27, i32 noundef %28, i8 noundef zeroext %29, ptr noundef %9)
  store i32 %30, ptr %10, align 4, !tbaa !32
  %31 = load i32, ptr %10, align 4, !tbaa !32
  %32 = icmp eq i32 %31, 1
  br i1 %32, label %33, label %34

33:                                               ; preds = %20
  call void @llvm.memcpy.p0.p0.i64(ptr align 8 %4, ptr align 8 %9, i64 8, i1 false), !tbaa.struct !92
  store i32 1, ptr %11, align 4
  br label %38

34:                                               ; preds = %20
  %35 = load i8, ptr %7, align 1, !tbaa !43
  %36 = call ptr @lv_style_prop_get_default(i8 noundef zeroext %35)
  %37 = getelementptr inbounds nuw %union.lv_style_value_t, ptr %4, i32 0, i32 0
  store ptr %36, ptr %37, align 8
  store i32 1, ptr %11, align 4
  br label %38

38:                                               ; preds = %34, %33
  call void @llvm.lifetime.end.p0(i64 4, ptr %10) #6
  call void @llvm.lifetime.end.p0(i64 8, ptr %9) #6
  call void @llvm.lifetime.end.p0(i64 4, ptr %8) #6
  %39 = getelementptr inbounds nuw %union.lv_style_value_t, ptr %4, i32 0, i32 0
  %40 = load ptr, ptr %39, align 8
  ret ptr %40
}

; Function Attrs: inlinehint nounwind uwtable
define internal i32 @lv_obj_style_get_selector_part(i32 noundef %0) #3 {
  %2 = alloca i32, align 4
  store i32 %0, ptr %2, align 4, !tbaa !32
  %3 = load i32, ptr %2, align 4, !tbaa !32
  %4 = and i32 %3, 16711680
  ret i32 %4
}

; Function Attrs: nounwind uwtable
define internal void @trans_anim_start_cb(ptr noundef %0) #0 {
  %2 = alloca ptr, align 8
  %3 = alloca ptr, align 8
  %4 = alloca i32, align 4
  %5 = alloca %union.lv_style_value_t, align 8
  %6 = alloca i8, align 1
  %7 = alloca ptr, align 8
  store ptr %0, ptr %2, align 8, !tbaa !120
  call void @llvm.lifetime.start.p0(i64 8, ptr %3) #6
  %8 = load ptr, ptr %2, align 8, !tbaa !120
  %9 = getelementptr inbounds nuw %struct._lv_anim_t, ptr %8, i32 0, i32 0
  %10 = load ptr, ptr %9, align 8, !tbaa !122
  store ptr %10, ptr %3, align 8, !tbaa !31
  call void @llvm.lifetime.start.p0(i64 4, ptr %4) #6
  %11 = load ptr, ptr %3, align 8, !tbaa !31
  %12 = getelementptr inbounds nuw %struct.trans_t, ptr %11, i32 0, i32 2
  %13 = load i32, ptr %12, align 4, !tbaa !50
  %14 = call i32 @lv_obj_style_get_selector_part(i32 noundef %13)
  store i32 %14, ptr %4, align 4, !tbaa !32
  %15 = load ptr, ptr %3, align 8, !tbaa !31
  %16 = getelementptr inbounds nuw %struct.trans_t, ptr %15, i32 0, i32 3
  call void @llvm.lifetime.start.p0(i64 8, ptr %5) #6
  %17 = load ptr, ptr %3, align 8, !tbaa !31
  %18 = getelementptr inbounds nuw %struct.trans_t, ptr %17, i32 0, i32 0
  %19 = load ptr, ptr %18, align 8, !tbaa !48
  %20 = load i32, ptr %4, align 4, !tbaa !32
  %21 = load ptr, ptr %3, align 8, !tbaa !31
  %22 = getelementptr inbounds nuw %struct.trans_t, ptr %21, i32 0, i32 1
  %23 = load i8, ptr %22, align 8, !tbaa !51
  %24 = call ptr @lv_obj_get_style_prop(ptr noundef %19, i32 noundef %20, i8 noundef zeroext %23)
  %25 = getelementptr inbounds nuw %union.lv_style_value_t, ptr %5, i32 0, i32 0
  store ptr %24, ptr %25, align 8
  call void @llvm.memcpy.p0.p0.i64(ptr align 8 %16, ptr align 8 %5, i64 8, i1 false), !tbaa.struct !92
  call void @llvm.lifetime.end.p0(i64 8, ptr %5) #6
  call void @llvm.lifetime.start.p0(i64 1, ptr %6) #6
  %26 = load ptr, ptr %3, align 8, !tbaa !31
  %27 = getelementptr inbounds nuw %struct.trans_t, ptr %26, i32 0, i32 1
  %28 = load i8, ptr %27, align 8, !tbaa !51
  store i8 %28, ptr %6, align 1, !tbaa !43
  %29 = load ptr, ptr %3, align 8, !tbaa !31
  %30 = getelementptr inbounds nuw %struct.trans_t, ptr %29, i32 0, i32 1
  store i8 0, ptr %30, align 8, !tbaa !51
  %31 = load ptr, ptr %3, align 8, !tbaa !31
  %32 = getelementptr inbounds nuw %struct.trans_t, ptr %31, i32 0, i32 0
  %33 = load ptr, ptr %32, align 8, !tbaa !48
  %34 = load i32, ptr %4, align 4, !tbaa !32
  %35 = load i8, ptr %6, align 1, !tbaa !43
  %36 = load ptr, ptr %3, align 8, !tbaa !31
  %37 = call zeroext i1 @trans_delete(ptr noundef %33, i32 noundef %34, i8 noundef zeroext %35, ptr noundef %36)
  %38 = load i8, ptr %6, align 1, !tbaa !43
  %39 = load ptr, ptr %3, align 8, !tbaa !31
  %40 = getelementptr inbounds nuw %struct.trans_t, ptr %39, i32 0, i32 1
  store i8 %38, ptr %40, align 8, !tbaa !51
  call void @llvm.lifetime.start.p0(i64 8, ptr %7) #6
  %41 = load ptr, ptr %3, align 8, !tbaa !31
  %42 = getelementptr inbounds nuw %struct.trans_t, ptr %41, i32 0, i32 0
  %43 = load ptr, ptr %42, align 8, !tbaa !48
  %44 = load ptr, ptr %3, align 8, !tbaa !31
  %45 = getelementptr inbounds nuw %struct.trans_t, ptr %44, i32 0, i32 2
  %46 = load i32, ptr %45, align 4, !tbaa !50
  %47 = call ptr @get_trans_style(ptr noundef %43, i32 noundef %46)
  store ptr %47, ptr %7, align 8, !tbaa !110
  %48 = load ptr, ptr %7, align 8, !tbaa !110
  %49 = getelementptr inbounds nuw %struct._lv_obj_style_t, ptr %48, i32 0, i32 0
  %50 = load ptr, ptr %49, align 8, !tbaa !45
  %51 = load ptr, ptr %3, align 8, !tbaa !31
  %52 = getelementptr inbounds nuw %struct.trans_t, ptr %51, i32 0, i32 1
  %53 = load i8, ptr %52, align 8, !tbaa !51
  %54 = load ptr, ptr %3, align 8, !tbaa !31
  %55 = getelementptr inbounds nuw %struct.trans_t, ptr %54, i32 0, i32 3
  %56 = getelementptr inbounds nuw %union.lv_style_value_t, ptr %55, i32 0, i32 0
  %57 = load ptr, ptr %56, align 8
  call void @lv_style_set_prop(ptr noundef %50, i8 noundef zeroext %53, ptr %57)
  %58 = load ptr, ptr %3, align 8, !tbaa !31
  %59 = getelementptr inbounds nuw %struct.trans_t, ptr %58, i32 0, i32 0
  %60 = load ptr, ptr %59, align 8, !tbaa !48
  %61 = load ptr, ptr %3, align 8, !tbaa !31
  %62 = getelementptr inbounds nuw %struct.trans_t, ptr %61, i32 0, i32 2
  %63 = load i32, ptr %62, align 4, !tbaa !50
  %64 = load ptr, ptr %3, align 8, !tbaa !31
  %65 = getelementptr inbounds nuw %struct.trans_t, ptr %64, i32 0, i32 1
  %66 = load i8, ptr %65, align 8, !tbaa !51
  call void @lv_obj_refresh_style(ptr noundef %60, i32 noundef %63, i8 noundef zeroext %66)
  call void @llvm.lifetime.end.p0(i64 8, ptr %7) #6
  call void @llvm.lifetime.end.p0(i64 1, ptr %6) #6
  call void @llvm.lifetime.end.p0(i64 4, ptr %4) #6
  call void @llvm.lifetime.end.p0(i64 8, ptr %3) #6
  ret void
}