; Function Attrs: nounwind uwtable
define internal void @trans_anim_start_cb(ptr noundef readonly captures(none) %0) #0 {
  %2 = alloca %union.lv_style_value_t, align 8
  %3 = load ptr, ptr %0, align 8, !tbaa !107
  %4 = getelementptr inbounds nuw i8, ptr %3, i64 12
  %5 = load i32, ptr %4, align 4, !tbaa !56
  %6 = and i32 %5, 16711680
  %7 = load ptr, ptr %3, align 8, !tbaa !51
  %8 = getelementptr inbounds nuw i8, ptr %3, i64 8
  %9 = load i8, ptr %8, align 8, !tbaa !53
  %.not.i = icmp eq ptr %7, null
  br i1 %.not.i, label %.preheader.i, label %10

.preheader.i:                                     ; preds = %1, %.preheader.i
  br label %.preheader.i

10:                                               ; preds = %1
  %11 = getelementptr inbounds nuw i8, ptr %7, i64 60
  %12 = load i16, ptr %11, align 4, !tbaa !62
  %13 = zext i16 %12 to i32
  %14 = or disjoint i32 %6, %13
  call void @llvm.lifetime.start.p0(i64 8, ptr nonnull %2) #9
  store i64 0, ptr %2, align 8
  %15 = call fastcc i32 @get_selector_style_prop(ptr noundef readonly %7, i32 noundef %14, i8 noundef zeroext %9, ptr noundef %2)
  %.not7.i = icmp eq i32 %15, 0
  br i1 %.not7.i, label %17, label %16

16:                                               ; preds = %10
  %.sroa.0.0.copyload.i = load ptr, ptr %2, align 8, !tbaa !37
  br label %lv_obj_get_style_prop.exit

17:                                               ; preds = %10
  %18 = tail call ptr @lv_style_prop_get_default(i8 noundef zeroext %9) #9
  br label %lv_obj_get_style_prop.exit

lv_obj_get_style_prop.exit:                       ; preds = %16, %17
  %.sroa.0.0.i = phi ptr [ %.sroa.0.0.copyload.i, %16 ], [ %18, %17 ]
  %19 = getelementptr inbounds nuw i8, ptr %3, i64 16
  call void @llvm.lifetime.end.p0(i64 8, ptr nonnull %2) #9
  store ptr %.sroa.0.0.i, ptr %19, align 8, !tbaa !37
  %20 = load i8, ptr %8, align 8, !tbaa !53
  store i8 0, ptr %8, align 8, !tbaa !53
  %21 = load ptr, ptr %3, align 8, !tbaa !51
  tail call fastcc void @trans_delete(ptr noundef %21, i32 noundef %6, i8 noundef zeroext %20, ptr noundef nonnull %3)
  store i8 %20, ptr %8, align 8, !tbaa !53
  %22 = load ptr, ptr %3, align 8, !tbaa !51
  %23 = load i32, ptr %4, align 4, !tbaa !56
  %24 = tail call fastcc ptr @get_trans_style(ptr noundef %22, i32 noundef %23)
  %25 = load ptr, ptr %24, align 8, !tbaa !49
  %26 = load i8, ptr %8, align 8, !tbaa !53
  %27 = load ptr, ptr %19, align 8
  tail call void @lv_style_set_prop(ptr noundef %25, i8 noundef zeroext %26, ptr %27) #9
  %28 = load ptr, ptr %3, align 8, !tbaa !51
  %29 = load i32, ptr %4, align 4, !tbaa !56
  %30 = load i8, ptr %8, align 8, !tbaa !53
  tail call void @lv_obj_refresh_style(ptr noundef %28, i32 noundef %29, i8 noundef zeroext %30)
  ret void
}